target datalayout = "e-m:e-p270:32:32-p271:32:32-p272:64:64-i64:64-i128:128-f80:128-n8:16:32:64-S128"
target triple = "x86_64-pc-linux-gnu"

%struct._generic_SUNLinearSolver = type { ptr, ptr, ptr }
%struct._SUNLinearSolverContent_SPFGMR = type { i32, i32, i32, i32, i32, i32, double, i32, ptr, ptr, ptr, ptr, ptr, ptr, ptr, ptr, ptr, ptr, ptr, ptr, ptr, ptr, ptr, ptr }

; Function Attrs: nounwind uwtable
define i32 @SUNLinSol_SPFGMRSetPrecType(ptr noundef %0, i32 noundef %1) #0 {
  %3 = alloca ptr, align 8
  %4 = alloca i32, align 4
  store ptr %0, ptr %3, align 8, !tbaa !12
  store i32 %1, ptr %4, align 4, !tbaa !8
  %5 = load i32, ptr %4, align 4, !tbaa !8
  %6 = icmp eq i32 %5, 1
  br i1 %6, label %13, label %7

7:                                                ; preds = %2
  %8 = load i32, ptr %4, align 4, !tbaa !8
  %9 = icmp eq i32 %8, 2
  br i1 %9, label %13, label %10

10:                                               ; preds = %7
  %11 = load i32, ptr %4, align 4, !tbaa !8
  %12 = icmp eq i32 %11, 3
  br label %13

13:                                               ; preds = %10, %7, %2
  %14 = phi i1 [ true, %7 ], [ true, %2 ], [ %12, %10 ]
  %15 = select i1 %14, i32 2, i32 0
  store i32 %15, ptr %4, align 4, !tbaa !8
  %16 = load i32, ptr %4, align 4, !tbaa !8
  %17 = load ptr, ptr %3, align 8, !tbaa !12
  %18 = getelementptr inbounds nuw %struct._generic_SUNLinearSolver, ptr %17, i32 0, i32 0
  %19 = load ptr, ptr %18, align 8, !tbaa !35
  %20 = getelementptr inbounds nuw %struct._SUNLinearSolverContent_SPFGMR, ptr %19, i32 0, i32 1
  store i32 %16, ptr %20, align 4, !tbaa !43
  ret i32 0
}