; Function Attrs: mustprogress nofree norecurse nosync nounwind willreturn memory(write, argmem: readwrite, inaccessiblemem: none) uwtable
define noundef i32 @SUNLinSol_SPFGMRSetPrecType(ptr noundef readonly captures(none) %0, i32 noundef %1) local_unnamed_addr #4 {
  %3 = add i32 %1, -1
  %4 = icmp ult i32 %3, 3
  %5 = select i1 %4, i32 2, i32 0
  %6 = load ptr, ptr %0, align 8, !tbaa !26
  %7 = getelementptr inbounds nuw i8, ptr %6, i64 4
  store i32 %5, ptr %7, align 4, !tbaa !36
  ret i32 0
}